; Function Attrs: uwtable
define hidden void @_ZThn72_N3opt7context5mk_gtEjR3refI5modelE(ptr noalias sret(%class.obj_ref.76) align 8 %agg.result, ptr noundef %this, i32 noundef %i, ptr noundef nonnull align 8 dereferenceable(8) %mdl) unnamed_addr #13 align 2 personality ptr @__gxx_personality_v0 {
entry:
  %0 = getelementptr inbounds i8, ptr %this, i64 -72
  tail call void @llvm.experimental.noalias.scope.decl(metadata !38)
  %vtable.i = load ptr, ptr %0, align 8, !noalias !38
  %vfn.i = getelementptr inbounds i8, ptr %vtable.i, i64 200
  %1 = load ptr, ptr %vfn.i, align 8, !noalias !38
  tail call void %1(ptr sret(%class.obj_ref.76) align 8 %agg.result, ptr noundef nonnull align 8 dereferenceable(792) %0, i32 noundef %i, ptr noundef nonnull align 8 dereferenceable(8) %mdl)
  %m.i = getelementptr inbounds i8, ptr %this, i64 -64
  %2 = load ptr, ptr %m.i, align 8, !noalias !38
  %3 = load ptr, ptr %agg.result, align 8, !alias.scope !38
  %call3.i = invoke noundef ptr @_Z6mk_notR11ast_managerP4expr(ptr noundef nonnull align 8 dereferenceable(976) %2, ptr noundef %3)
          to label %invoke.cont2.i unwind label %lpad.i

invoke.cont2.i:                                   ; preds = %entry
  %tobool.not.i.i = icmp eq ptr %call3.i, null
  br i1 %tobool.not.i.i, label %if.end.i.i, label %_ZN11ast_manager7inc_refEP3ast.exit.i.i

_ZN11ast_manager7inc_refEP3ast.exit.i.i:          ; preds = %invoke.cont2.i
  %m_ref_count.i.i.i.i = getelementptr inbounds i8, ptr %call3.i, i64 8
  %4 = load i32, ptr %m_ref_count.i.i.i.i, align 4
  %inc.i.i.i.i = add i32 %4, 1
  store i32 %inc.i.i.i.i, ptr %m_ref_count.i.i.i.i, align 4
  br label %if.end.i.i

if.end.i.i:                                       ; preds = %_ZN11ast_manager7inc_refEP3ast.exit.i.i, %invoke.cont2.i
  %5 = load ptr, ptr %agg.result, align 8, !alias.scope !38
  %tobool.not.i3.i.i = icmp eq ptr %5, null
  br i1 %tobool.not.i3.i.i, label %_ZN3opt7context5mk_gtEjR3refI5modelE.exit, label %if.then.i.i.i.i

if.then.i.i.i.i:                                  ; preds = %if.end.i.i
  %m_manager.i.i.i = getelementptr inbounds i8, ptr %agg.result, i64 8
  %6 = load ptr, ptr %m_manager.i.i.i, align 8, !alias.scope !38
  %m_ref_count.i.i.i.i.i = getelementptr inbounds i8, ptr %5, i64 8
  %7 = load i32, ptr %m_ref_count.i.i.i.i.i, align 4
  %dec.i.i.i.i.i = add i32 %7, -1
  store i32 %dec.i.i.i.i.i, ptr %m_ref_count.i.i.i.i.i, align 4
  %cmp.i.i.i.i = icmp eq i32 %dec.i.i.i.i.i, 0
  br i1 %cmp.i.i.i.i, label %if.then2.i.i.i.i, label %_ZN3opt7context5mk_gtEjR3refI5modelE.exit

if.then2.i.i.i.i:                                 ; preds = %if.then.i.i.i.i
  invoke void @_ZN11ast_manager11delete_nodeEP3ast(ptr noundef nonnull align 8 dereferenceable(976) %6, ptr noundef nonnull %5)
          to label %_ZN3opt7context5mk_gtEjR3refI5modelE.exit unwind label %lpad.i

lpad.i:                                           ; preds = %if.then2.i.i.i.i, %entry
  %8 = landingpad { ptr, i32 }
          cleanup
  tail call void @_ZN7obj_refI4expr11ast_managerED2Ev(ptr noundef nonnull align 8 dereferenceable(16) %agg.result) #24
  resume { ptr, i32 } %8

_ZN3opt7context5mk_gtEjR3refI5modelE.exit:        ; preds = %if.end.i.i, %if.then.i.i.i.i, %if.then2.i.i.i.i
  store ptr %call3.i, ptr %agg.result, align 8, !alias.scope !38
  ret void
}